target datalayout = "e-m:e-p270:32:32-p271:32:32-p272:64:64-i64:64-i128:128-f80:128-n8:16:32:64-S128"
target triple = "x86_64-pc-linux-gnu"

%struct._PQconninfoOption = type { ptr, ptr, ptr, ptr, ptr, ptr, i32 }

@connection_string = dso_local global ptr null, align 8
@.str = private unnamed_addr constant [3 x i8] c"%s\00", align 1
@.str.1 = private unnamed_addr constant [7 x i8] c"dbname\00", align 1
@.str.18 = private unnamed_addr constant [14 x i8] c"out of memory\00", align 1

; Function Attrs: nounwind uwtable
define internal ptr @FindDbnameInConnParams(ptr noundef %0) #0 {
  %2 = alloca ptr, align 8
  %3 = alloca ptr, align 8
  %4 = alloca ptr, align 8
  %5 = alloca i32, align 4
  store ptr %0, ptr %3, align 8
  call void @llvm.lifetime.start.p0(i64 8, ptr %4) #9
  %6 = load ptr, ptr %3, align 8
  store ptr %6, ptr %4, align 8
  br label %7

7:                                                ; preds = %37, %1
  %8 = load ptr, ptr %4, align 8
  %9 = getelementptr inbounds nuw %struct._PQconninfoOption, ptr %8, i32 0, i32 0
  %10 = load ptr, ptr %9, align 8
  %11 = icmp ne ptr %10, null
  br i1 %11, label %12, label %40

12:                                               ; preds = %7
  %13 = load ptr, ptr %4, align 8
  %14 = getelementptr inbounds nuw %struct._PQconninfoOption, ptr %13, i32 0, i32 0
  %15 = load ptr, ptr %14, align 8
  %16 = call i32 @strcmp(ptr noundef %15, ptr noundef @.str.1) #11
  %17 = icmp eq i32 %16, 0
  br i1 %17, label %18, label %36

18:                                               ; preds = %12
  %19 = load ptr, ptr %4, align 8
  %20 = getelementptr inbounds nuw %struct._PQconninfoOption, ptr %19, i32 0, i32 3
  %21 = load ptr, ptr %20, align 8
  %22 = icmp ne ptr %21, null
  br i1 %22, label %23, label %36

23:                                               ; preds = %18
  %24 = load ptr, ptr %4, align 8
  %25 = getelementptr inbounds nuw %struct._PQconninfoOption, ptr %24, i32 0, i32 3
  %26 = load ptr, ptr %25, align 8
  %27 = getelementptr inbounds i8, ptr %26, i64 0
  %28 = load i8, ptr %27, align 1
  %29 = sext i8 %28 to i32
  %30 = icmp ne i32 %29, 0
  br i1 %30, label %31, label %36

31:                                               ; preds = %23
  %32 = load ptr, ptr %4, align 8
  %33 = getelementptr inbounds nuw %struct._PQconninfoOption, ptr %32, i32 0, i32 3
  %34 = load ptr, ptr %33, align 8
  %35 = call ptr @pg_strdup(ptr noundef %34)
  store ptr %35, ptr %2, align 8
  store i32 1, ptr %5, align 4
  br label %41

36:                                               ; preds = %23, %18, %12
  br label %37

37:                                               ; preds = %36
  %38 = load ptr, ptr %4, align 8
  %39 = getelementptr inbounds nuw %struct._PQconninfoOption, ptr %38, i32 1
  store ptr %39, ptr %4, align 8
  br label %7, !llvm.loop !10

40:                                               ; preds = %7
  store ptr null, ptr %2, align 8
  store i32 1, ptr %5, align 4
  br label %41

41:                                               ; preds = %40, %31
  call void @llvm.lifetime.end.p0(i64 8, ptr %4) #9
  %42 = load ptr, ptr %2, align 8
  ret ptr %42
}

; Function Attrs: nounwind uwtable
define dso_local ptr @GetDbnameFromConnectionOptions() #0 {
  %1 = alloca ptr, align 8
  %2 = alloca ptr, align 8
  %3 = alloca ptr, align 8
  %4 = alloca ptr, align 8
  %5 = alloca i32, align 4
  call void @llvm.lifetime.start.p0(i64 8, ptr %2) #9
  call void @llvm.lifetime.start.p0(i64 8, ptr %3) #9
  store ptr null, ptr %3, align 8
  call void @llvm.lifetime.start.p0(i64 8, ptr %4) #9
  %6 = load ptr, ptr @connection_string, align 8
  %7 = icmp ne ptr %6, null
  br i1 %7, label %8, label %27

8:                                                ; preds = %0
  %9 = load ptr, ptr @connection_string, align 8
  %10 = call ptr @PQconninfoParse(ptr noundef %9, ptr noundef %3)
  store ptr %10, ptr %2, align 8
  %11 = load ptr, ptr %2, align 8
  %12 = icmp eq ptr %11, null
  br i1 %12, label %13, label %18

13:                                               ; preds = %8
  br label %14

14:                                               ; preds = %13
  %15 = load ptr, ptr %3, align 8
  call void (i32, i32, ptr, ...) @pg_log_generic(i32 noundef 4, i32 noundef 0, ptr noundef @.str, ptr noundef %15)
  call void @exit(i32 noundef 1) #10
  unreachable

16:                                               ; No predecessors!
  br label %17

17:                                               ; preds = %16
  br label %18

18:                                               ; preds = %17, %8
  %19 = load ptr, ptr %2, align 8
  %20 = call ptr @FindDbnameInConnParams(ptr noundef %19)
  store ptr %20, ptr %4, align 8
  %21 = load ptr, ptr %2, align 8
  call void @PQconninfoFree(ptr noundef %21)
  %22 = load ptr, ptr %4, align 8
  %23 = icmp ne ptr %22, null
  br i1 %23, label %24, label %26

24:                                               ; preds = %18
  %25 = load ptr, ptr %4, align 8
  store ptr %25, ptr %1, align 8
  store i32 1, ptr %5, align 4
  br label %40

26:                                               ; preds = %18
  br label %27

27:                                               ; preds = %26, %0
  %28 = call ptr @PQconndefaults()
  store ptr %28, ptr %2, align 8
  %29 = load ptr, ptr %2, align 8
  %30 = icmp eq ptr %29, null
  br i1 %30, label %31, label %35

31:                                               ; preds = %27
  br label %32

32:                                               ; preds = %31
  call void (i32, i32, ptr, ...) @pg_log_generic(i32 noundef 4, i32 noundef 0, ptr noundef @.str.18)
  call void @exit(i32 noundef 1) #10
  unreachable

33:                                               ; No predecessors!
  br label %34

34:                                               ; preds = %33
  br label %35

35:                                               ; preds = %34, %27
  %36 = load ptr, ptr %2, align 8
  %37 = call ptr @FindDbnameInConnParams(ptr noundef %36)
  store ptr %37, ptr %4, align 8
  %38 = load ptr, ptr %2, align 8
  call void @PQconninfoFree(ptr noundef %38)
  %39 = load ptr, ptr %4, align 8
  store ptr %39, ptr %1, align 8
  store i32 1, ptr %5, align 4
  br label %40

40:                                               ; preds = %35, %24
  call void @llvm.lifetime.end.p0(i64 8, ptr %4) #9
  call void @llvm.lifetime.end.p0(i64 8, ptr %3) #9
  call void @llvm.lifetime.end.p0(i64 8, ptr %2) #9
  %41 = load ptr, ptr %1, align 8
  ret ptr %41
}