; Function Attrs: nounwind uwtable
define dso_local ptr @GetDbnameFromConnectionOptions() local_unnamed_addr #0 {
  %1 = alloca ptr, align 8
  call void @llvm.lifetime.start.p0(i64 8, ptr nonnull %1) #15
  store ptr null, ptr %1, align 8
  %2 = load ptr, ptr @connection_string, align 8
  %.not = icmp eq ptr %2, null
  br i1 %.not, label %22, label %3

3:                                                ; preds = %0
  %4 = call ptr @PQconninfoParse(ptr noundef nonnull %2, ptr noundef nonnull %1) #15
  %5 = icmp eq ptr %4, null
  br i1 %5, label %6, label %8

6:                                                ; preds = %3
  %7 = load ptr, ptr %1, align 8
  call void (i32, i32, ptr, ...) @pg_log_generic(i32 noundef 4, i32 noundef 0, ptr noundef nonnull @.str, ptr noundef %7) #15
  call void @exit(i32 noundef 1) #16
  unreachable

8:                                                ; preds = %3
  %9 = load ptr, ptr %4, align 8
  %.not13.i = icmp eq ptr %9, null
  br i1 %.not13.i, label %FindDbnameInConnParams.exit.thread, label %.lr.ph.i

.lr.ph.i:                                         ; preds = %8, %18
  %10 = phi ptr [ %20, %18 ], [ %9, %8 ]
  %.014.i = phi ptr [ %19, %18 ], [ %4, %8 ]
  %11 = call i32 @strcmp(ptr noundef nonnull dereferenceable(1) %10, ptr noundef nonnull dereferenceable(7) @.str.1) #17
  %12 = icmp eq i32 %11, 0
  br i1 %12, label %13, label %18

13:                                               ; preds = %.lr.ph.i
  %14 = getelementptr inbounds nuw i8, ptr %.014.i, i64 24
  %15 = load ptr, ptr %14, align 8
  %.not11.i = icmp eq ptr %15, null
  br i1 %.not11.i, label %18, label %16

16:                                               ; preds = %13
  %17 = load i8, ptr %15, align 1
  %.not12.i = icmp eq i8 %17, 0
  br i1 %.not12.i, label %18, label %FindDbnameInConnParams.exit

18:                                               ; preds = %16, %13, %.lr.ph.i
  %19 = getelementptr inbounds nuw i8, ptr %.014.i, i64 56
  %20 = load ptr, ptr %19, align 8
  %.not.i = icmp eq ptr %20, null
  br i1 %.not.i, label %FindDbnameInConnParams.exit.thread, label %.lr.ph.i, !llvm.loop !7

FindDbnameInConnParams.exit.thread:               ; preds = %18, %8
  call void @PQconninfoFree(ptr noundef nonnull %4) #15
  br label %22

FindDbnameInConnParams.exit:                      ; preds = %16
  %21 = call ptr @pg_strdup(ptr noundef nonnull %15) #15
  call void @PQconninfoFree(ptr noundef nonnull %4) #15
  %.not14 = icmp eq ptr %21, null
  br i1 %.not14, label %22, label %41

22:                                               ; preds = %FindDbnameInConnParams.exit.thread, %FindDbnameInConnParams.exit, %0
  %23 = call ptr @PQconndefaults() #15
  %24 = icmp eq ptr %23, null
  br i1 %24, label %25, label %26

25:                                               ; preds = %22
  call void (i32, i32, ptr, ...) @pg_log_generic(i32 noundef 4, i32 noundef 0, ptr noundef nonnull @.str.18) #15
  call void @exit(i32 noundef 1) #16
  unreachable

26:                                               ; preds = %22
  %27 = load ptr, ptr %23, align 8
  %.not13.i15 = icmp eq ptr %27, null
  br i1 %.not13.i15, label %FindDbnameInConnParams.exit22, label %.lr.ph.i16

.lr.ph.i16:                                       ; preds = %26, %38
  %28 = phi ptr [ %40, %38 ], [ %27, %26 ]
  %.014.i17 = phi ptr [ %39, %38 ], [ %23, %26 ]
  %29 = call i32 @strcmp(ptr noundef nonnull dereferenceable(1) %28, ptr noundef nonnull dereferenceable(7) @.str.1) #17
  %30 = icmp eq i32 %29, 0
  br i1 %30, label %31, label %38

31:                                               ; preds = %.lr.ph.i16
  %32 = getelementptr inbounds nuw i8, ptr %.014.i17, i64 24
  %33 = load ptr, ptr %32, align 8
  %.not11.i20 = icmp eq ptr %33, null
  br i1 %.not11.i20, label %38, label %34

34:                                               ; preds = %31
  %35 = load i8, ptr %33, align 1
  %.not12.i21 = icmp eq i8 %35, 0
  br i1 %.not12.i21, label %38, label %36

36:                                               ; preds = %34
  %37 = call ptr @pg_strdup(ptr noundef nonnull %33) #15
  br label %FindDbnameInConnParams.exit22

38:                                               ; preds = %34, %31, %.lr.ph.i16
  %39 = getelementptr inbounds nuw i8, ptr %.014.i17, i64 56
  %40 = load ptr, ptr %39, align 8
  %.not.i18 = icmp eq ptr %40, null
  br i1 %.not.i18, label %FindDbnameInConnParams.exit22, label %.lr.ph.i16, !llvm.loop !7

FindDbnameInConnParams.exit22:                    ; preds = %38, %26, %36
  %.08.i19 = phi ptr [ %37, %36 ], [ null, %26 ], [ null, %38 ]
  call void @PQconninfoFree(ptr noundef nonnull %23) #15
  br label %41

41:                                               ; preds = %FindDbnameInConnParams.exit, %FindDbnameInConnParams.exit22
  %.0 = phi ptr [ %.08.i19, %FindDbnameInConnParams.exit22 ], [ %21, %FindDbnameInConnParams.exit ]
  call void @llvm.lifetime.end.p0(i64 8, ptr nonnull %1) #15
  ret ptr %.0
}